target datalayout = "e-m:e-p270:32:32-p271:32:32-p272:64:64-i64:64-i128:128-f80:128-n8:16:32:64-S128"
target triple = "x86_64-pc-linux-gnu"

%struct.Vec_Int_t_ = type { i32, i32, ptr }

; Function Attrs: nounwind uwtable
define internal ptr @Vec_IntAlloc(i32 noundef %0) #0 {
  %2 = alloca i32, align 4
  %3 = alloca ptr, align 8
  store i32 %0, ptr %2, align 4
  %4 = call noalias ptr @malloc(i64 noundef 16) #12
  store ptr %4, ptr %3, align 8
  %5 = load i32, ptr %2, align 4
  %6 = icmp sgt i32 %5, 0
  br i1 %6, label %7, label %11

7:                                                ; preds = %1
  %8 = load i32, ptr %2, align 4
  %9 = icmp slt i32 %8, 16
  br i1 %9, label %10, label %11

10:                                               ; preds = %7
  store i32 16, ptr %2, align 4
  br label %11

11:                                               ; preds = %10, %7, %1
  %12 = load ptr, ptr %3, align 8
  %13 = getelementptr inbounds %struct.Vec_Int_t_, ptr %12, i32 0, i32 1
  store i32 0, ptr %13, align 4
  %14 = load i32, ptr %2, align 4
  %15 = load ptr, ptr %3, align 8
  %16 = getelementptr inbounds %struct.Vec_Int_t_, ptr %15, i32 0, i32 0
  store i32 %14, ptr %16, align 8
  %17 = load ptr, ptr %3, align 8
  %18 = getelementptr inbounds %struct.Vec_Int_t_, ptr %17, i32 0, i32 0
  %19 = load i32, ptr %18, align 8
  %20 = icmp ne i32 %19, 0
  br i1 %20, label %21, label %28

21:                                               ; preds = %11
  %22 = load ptr, ptr %3, align 8
  %23 = getelementptr inbounds %struct.Vec_Int_t_, ptr %22, i32 0, i32 0
  %24 = load i32, ptr %23, align 8
  %25 = sext i32 %24 to i64
  %26 = mul i64 4, %25
  %27 = call noalias ptr @malloc(i64 noundef %26) #12
  br label %29

28:                                               ; preds = %11
  br label %29

29:                                               ; preds = %28, %21
  %30 = phi ptr [ %27, %21 ], [ null, %28 ]
  %31 = load ptr, ptr %3, align 8
  %32 = getelementptr inbounds %struct.Vec_Int_t_, ptr %31, i32 0, i32 2
  store ptr %30, ptr %32, align 8
  %33 = load ptr, ptr %3, align 8
  ret ptr %33
}

; Function Attrs: nounwind uwtable
define internal ptr @Vec_IntArray(ptr noundef %0) #0 {
  %2 = alloca ptr, align 8
  store ptr %0, ptr %2, align 8
  %3 = load ptr, ptr %2, align 8
  %4 = getelementptr inbounds %struct.Vec_Int_t_, ptr %3, i32 0, i32 2
  %5 = load ptr, ptr %4, align 8
  ret ptr %5
}

; Function Attrs: nounwind uwtable
define internal ptr @Vec_IntStartNatural(i32 noundef %0) #0 {
  %2 = alloca i32, align 4
  %3 = alloca ptr, align 8
  %4 = alloca i32, align 4
  store i32 %0, ptr %2, align 4
  %5 = load i32, ptr %2, align 4
  %6 = call ptr @Vec_IntAlloc(i32 noundef %5)
  store ptr %6, ptr %3, align 8
  %7 = load i32, ptr %2, align 4
  %8 = load ptr, ptr %3, align 8
  %9 = getelementptr inbounds %struct.Vec_Int_t_, ptr %8, i32 0, i32 1
  store i32 %7, ptr %9, align 4
  store i32 0, ptr %4, align 4
  br label %10

10:                                               ; preds = %22, %1
  %11 = load i32, ptr %4, align 4
  %12 = load i32, ptr %2, align 4
  %13 = icmp slt i32 %11, %12
  br i1 %13, label %14, label %25

14:                                               ; preds = %10
  %15 = load i32, ptr %4, align 4
  %16 = load ptr, ptr %3, align 8
  %17 = getelementptr inbounds %struct.Vec_Int_t_, ptr %16, i32 0, i32 2
  %18 = load ptr, ptr %17, align 8
  %19 = load i32, ptr %4, align 4
  %20 = sext i32 %19 to i64
  %21 = getelementptr inbounds i32, ptr %18, i64 %20
  store i32 %15, ptr %21, align 4
  br label %22

22:                                               ; preds = %14
  %23 = load i32, ptr %4, align 4
  %24 = add nsw i32 %23, 1
  store i32 %24, ptr %4, align 4
  br label %10, !llvm.loop !89

25:                                               ; preds = %10
  %26 = load ptr, ptr %3, align 8
  ret ptr %26
}

; Function Attrs: nounwind uwtable
define ptr @Gia_ManCreatePerm(i32 noundef %0) #0 {
  %2 = alloca i32, align 4
  %3 = alloca ptr, align 8
  %4 = alloca i32, align 4
  %5 = alloca ptr, align 8
  %6 = alloca i32, align 4
  %7 = alloca i32, align 4
  store i32 %0, ptr %2, align 4
  %8 = load i32, ptr %2, align 4
  %9 = call ptr @Vec_IntStartNatural(i32 noundef %8)
  store ptr %9, ptr %3, align 8
  %10 = load ptr, ptr %3, align 8
  %11 = call ptr @Vec_IntArray(ptr noundef %10)
  store ptr %11, ptr %5, align 8
  store i32 0, ptr %4, align 4
  br label %12

12:                                               ; preds = %39, %1
  %13 = load i32, ptr %4, align 4
  %14 = load i32, ptr %2, align 4
  %15 = icmp slt i32 %13, %14
  br i1 %15, label %16, label %42

16:                                               ; preds = %12
  %17 = call i32 @Abc_Random(i32 noundef 0)
  %18 = load i32, ptr %2, align 4
  %19 = urem i32 %17, %18
  store i32 %19, ptr %6, align 4
  %20 = load ptr, ptr %5, align 8
  %21 = load i32, ptr %4, align 4
  %22 = sext i32 %21 to i64
  %23 = getelementptr inbounds i32, ptr %20, i64 %22
  %24 = load i32, ptr %23, align 4
  store i32 %24, ptr %7, align 4
  %25 = load ptr, ptr %5, align 8
  %26 = load i32, ptr %6, align 4
  %27 = sext i32 %26 to i64
  %28 = getelementptr inbounds i32, ptr %25, i64 %27
  %29 = load i32, ptr %28, align 4
  %30 = load ptr, ptr %5, align 8
  %31 = load i32, ptr %4, align 4
  %32 = sext i32 %31 to i64
  %33 = getelementptr inbounds i32, ptr %30, i64 %32
  store i32 %29, ptr %33, align 4
  %34 = load i32, ptr %7, align 4
  %35 = load ptr, ptr %5, align 8
  %36 = load i32, ptr %6, align 4
  %37 = sext i32 %36 to i64
  %38 = getelementptr inbounds i32, ptr %35, i64 %37
  store i32 %34, ptr %38, align 4
  br label %39

39:                                               ; preds = %16
  %40 = load i32, ptr %4, align 4
  %41 = add nsw i32 %40, 1
  store i32 %41, ptr %4, align 4
  br label %12, !llvm.loop !88

42:                                               ; preds = %12
  %43 = load ptr, ptr %3, align 8
  ret ptr %43
}