; Function Attrs: nounwind uwtable
define noalias noundef ptr @Gia_ManCreatePerm(i32 noundef %0) local_unnamed_addr #1 {
  %2 = tail call noalias dereferenceable_or_null(16) ptr @malloc(i64 noundef 16) #27
  %3 = add i32 %0, -1
  %or.cond.i.i = icmp ult i32 %3, 15
  %spec.store.select.i.i = select i1 %or.cond.i.i, i32 16, i32 %0
  %4 = getelementptr inbounds nuw i8, ptr %2, i64 4
  store i32 %spec.store.select.i.i, ptr %2, align 8
  %.not.i.i = icmp eq i32 %spec.store.select.i.i, 0
  br i1 %.not.i.i, label %Vec_IntAlloc.exit.i, label %5

5:                                                ; preds = %1
  %6 = sext i32 %spec.store.select.i.i to i64
  %7 = shl nsw i64 %6, 2
  %8 = tail call noalias ptr @malloc(i64 noundef %7) #27
  br label %Vec_IntAlloc.exit.i

Vec_IntAlloc.exit.i:                              ; preds = %5, %1
  %.val = phi ptr [ %8, %5 ], [ null, %1 ]
  %9 = getelementptr inbounds nuw i8, ptr %2, i64 8
  store ptr %.val, ptr %9, align 8
  store i32 %0, ptr %4, align 4
  %10 = icmp sgt i32 %0, 0
  br i1 %10, label %.lr.ph.i, label %._crit_edge

.lr.ph.i:                                         ; preds = %Vec_IntAlloc.exit.i
  %wide.trip.count.i = zext nneg i32 %0 to i64
  br label %11

11:                                               ; preds = %11, %.lr.ph.i
  %indvars.iv.i = phi i64 [ 0, %.lr.ph.i ], [ %indvars.iv.next.i, %11 ]
  %12 = getelementptr inbounds nuw i32, ptr %.val, i64 %indvars.iv.i
  %13 = trunc nuw nsw i64 %indvars.iv.i to i32
  store i32 %13, ptr %12, align 4
  %indvars.iv.next.i = add nuw nsw i64 %indvars.iv.i, 1
  %exitcond.not.i = icmp eq i64 %indvars.iv.next.i, %wide.trip.count.i
  br i1 %exitcond.not.i, label %.lr.ph.preheader, label %11, !llvm.loop !87

.lr.ph.preheader:                                 ; preds = %11
  %wide.trip.count = zext nneg i32 %0 to i64
  br label %.lr.ph

.lr.ph:                                           ; preds = %.lr.ph.preheader, %.lr.ph
  %indvars.iv = phi i64 [ 0, %.lr.ph.preheader ], [ %indvars.iv.next, %.lr.ph ]
  %14 = tail call i32 @Abc_Random(i32 noundef 0) #29
  %15 = urem i32 %14, %0
  %16 = getelementptr inbounds nuw i32, ptr %.val, i64 %indvars.iv
  %17 = load i32, ptr %16, align 4
  %18 = zext nneg i32 %15 to i64
  %19 = getelementptr inbounds nuw i32, ptr %.val, i64 %18
  %20 = load i32, ptr %19, align 4
  store i32 %20, ptr %16, align 4
  store i32 %17, ptr %19, align 4
  %indvars.iv.next = add nuw nsw i64 %indvars.iv, 1
  %exitcond.not = icmp eq i64 %indvars.iv.next, %wide.trip.count
  br i1 %exitcond.not, label %._crit_edge, label %.lr.ph, !llvm.loop !88

._crit_edge:                                      ; preds = %.lr.ph, %Vec_IntAlloc.exit.i
  ret ptr %2
}